target datalayout = "e-m:e-p270:32:32-p271:32:32-p272:64:64-i64:64-i128:128-f80:128-n8:16:32:64-S128"
target triple = "x86_64-pc-linux-gnu"

@XML_FILE = global ptr null, align 8
@.str.12 = private unnamed_addr constant [2 x i8] c"w\00", align 1
@XML_FILE_NAME = internal global ptr null, align 8
@.str.49 = private unnamed_addr constant [6 x i8] c"fopen\00", align 1
@stderr = external global ptr, align 8
@.str.50 = private unnamed_addr constant [42 x i8] c" Error: couldn't open XML output file %s\0A\00", align 1
@XML_PREFIX = internal global [256 x i8] zeroinitializer, align 16
@.str.51 = private unnamed_addr constant [23 x i8] c"<testsuite name=\22%s\22>\0A\00", align 1

; Function Attrs: nounwind uwtable
define i32 @ctest_xml_init(ptr noundef %0) #0 {
  %2 = alloca i32, align 4
  %3 = alloca ptr, align 8
  %4 = alloca ptr, align 8
  store ptr %0, ptr %3, align 8, !tbaa !15
  %5 = load ptr, ptr @XML_FILE_NAME, align 8, !tbaa !15
  %6 = icmp ne ptr %5, null
  br i1 %6, label %8, label %7

7:                                                ; preds = %1
  store i32 0, ptr %2, align 4
  br label %79

8:                                                ; preds = %1
  %9 = load ptr, ptr @XML_FILE_NAME, align 8, !tbaa !15
  %10 = call noalias ptr @fopen(ptr noundef %9, ptr noundef @.str.12)
  store ptr %10, ptr @XML_FILE, align 8, !tbaa !27
  %11 = load ptr, ptr @XML_FILE, align 8, !tbaa !27
  %12 = icmp ne ptr %11, null
  br i1 %12, label %17, label %13

13:                                               ; preds = %8
  call void @perror(ptr noundef @.str.49)
  %14 = load ptr, ptr @stderr, align 8, !tbaa !27
  %15 = load ptr, ptr @XML_FILE_NAME, align 8, !tbaa !15
  %16 = call i32 (ptr, ptr, ...) @fprintf(ptr noundef %14, ptr noundef @.str.50, ptr noundef %15) #12
  store i32 1, ptr %2, align 4
  br label %79

17:                                               ; preds = %8
  br label %18

18:                                               ; preds = %38, %17
  %19 = load ptr, ptr %3, align 8, !tbaa !15
  %20 = load i8, ptr %19, align 1, !tbaa !20
  %21 = sext i8 %20 to i32
  %22 = icmp ne i32 %21, 0
  br i1 %22, label %23, label %36

23:                                               ; preds = %18
  %24 = call ptr @__ctype_b_loc() #16
  %25 = load ptr, ptr %24, align 8, !tbaa !42
  %26 = load ptr, ptr %3, align 8, !tbaa !15
  %27 = load i8, ptr %26, align 1, !tbaa !20
  %28 = sext i8 %27 to i32
  %29 = sext i32 %28 to i64
  %30 = getelementptr inbounds i16, ptr %25, i64 %29
  %31 = load i16, ptr %30, align 2, !tbaa !44
  %32 = zext i16 %31 to i32
  %33 = and i32 %32, 8
  %34 = icmp ne i32 %33, 0
  %35 = xor i1 %34, true
  br label %36

36:                                               ; preds = %23, %18
  %37 = phi i1 [ false, %18 ], [ %35, %23 ]
  br i1 %37, label %38, label %41

38:                                               ; preds = %36
  %39 = load ptr, ptr %3, align 8, !tbaa !15
  %40 = getelementptr inbounds nuw i8, ptr %39, i32 1
  store ptr %40, ptr %3, align 8, !tbaa !15
  br label %18, !llvm.loop !46

41:                                               ; preds = %36
  %42 = load ptr, ptr %3, align 8, !tbaa !15
  %43 = call ptr @strcpy(ptr noundef @XML_PREFIX, ptr noundef %42) #12
  call void @llvm.lifetime.start.p0(i64 8, ptr %4) #12
  %44 = call i64 @strlen(ptr noundef @XML_PREFIX) #14
  %45 = getelementptr inbounds nuw i8, ptr @XML_PREFIX, i64 %44
  store ptr %45, ptr %4, align 8, !tbaa !15
  %46 = load ptr, ptr %4, align 8, !tbaa !15
  %47 = getelementptr inbounds i8, ptr %46, i32 -1
  store ptr %47, ptr %4, align 8, !tbaa !15
  br label %48

48:                                               ; preds = %73, %41
  %49 = load ptr, ptr %4, align 8, !tbaa !15
  %50 = load i8, ptr %49, align 1, !tbaa !20
  %51 = sext i8 %50 to i32
  %52 = icmp ne i32 %51, 0
  br i1 %52, label %53, label %69

53:                                               ; preds = %48
  %54 = load ptr, ptr %4, align 8, !tbaa !15
  %55 = icmp ugt ptr %54, @XML_PREFIX
  br i1 %55, label %56, label %69

56:                                               ; preds = %53
  %57 = call ptr @__ctype_b_loc() #16
  %58 = load ptr, ptr %57, align 8, !tbaa !42
  %59 = load ptr, ptr %4, align 8, !tbaa !15
  %60 = load i8, ptr %59, align 1, !tbaa !20
  %61 = sext i8 %60 to i32
  %62 = sext i32 %61 to i64
  %63 = getelementptr inbounds i16, ptr %58, i64 %62
  %64 = load i16, ptr %63, align 2, !tbaa !44
  %65 = zext i16 %64 to i32
  %66 = and i32 %65, 8
  %67 = icmp ne i32 %66, 0
  %68 = xor i1 %67, true
  br label %69

69:                                               ; preds = %56, %53, %48
  %70 = phi i1 [ false, %53 ], [ false, %48 ], [ %68, %56 ]
  br i1 %70, label %71, label %76

71:                                               ; preds = %69
  %72 = load ptr, ptr %4, align 8, !tbaa !15
  store i8 0, ptr %72, align 1, !tbaa !20
  br label %73

73:                                               ; preds = %71
  %74 = load ptr, ptr %4, align 8, !tbaa !15
  %75 = getelementptr inbounds i8, ptr %74, i32 -1
  store ptr %75, ptr %4, align 8, !tbaa !15
  br label %48, !llvm.loop !47

76:                                               ; preds = %69
  call void @llvm.lifetime.end.p0(i64 8, ptr %4) #12
  %77 = load ptr, ptr @XML_FILE, align 8, !tbaa !27
  %78 = call i32 (ptr, ptr, ...) @fprintf(ptr noundef %77, ptr noundef @.str.51, ptr noundef @XML_PREFIX) #12
  store i32 0, ptr %2, align 4
  br label %79

79:                                               ; preds = %76, %13, %7
  %80 = load i32, ptr %2, align 4
  ret i32 %80
}