; Function Attrs: nofree nounwind uwtable
define range(i32 0, 2) i32 @ctest_xml_init(ptr noundef readonly captures(none) %0) local_unnamed_addr #2 {
  %2 = load ptr, ptr @XML_FILE_NAME, align 8, !tbaa !21
  %.not = icmp eq ptr %2, null
  br i1 %.not, label %40, label %3

3:                                                ; preds = %1
  %4 = tail call noalias ptr @fopen(ptr noundef nonnull %2, ptr noundef nonnull @.str.12)
  store ptr %4, ptr @XML_FILE, align 8, !tbaa !16
  %.not18 = icmp eq ptr %4, null
  br i1 %.not18, label %8, label %.preheader

.preheader:                                       ; preds = %3
  %5 = load i8, ptr %0, align 1, !tbaa !11
  %.not1922 = icmp eq i8 %5, 0
  br i1 %.not1922, label %.critedge, label %.lr.ph

.lr.ph:                                           ; preds = %.preheader
  %6 = tail call ptr @__ctype_b_loc() #27
  %7 = load ptr, ptr %6, align 8, !tbaa !31
  br label %12

8:                                                ; preds = %3
  tail call void @perror(ptr noundef nonnull @.str.49) #28
  %9 = load ptr, ptr @stderr, align 8, !tbaa !16
  %10 = load ptr, ptr @XML_FILE_NAME, align 8, !tbaa !21
  %11 = tail call i32 (ptr, ptr, ...) @fprintf(ptr noundef %9, ptr noundef nonnull @.str.50, ptr noundef %10) #29
  br label %40

12:                                               ; preds = %.lr.ph, %18
  %13 = phi i8 [ %5, %.lr.ph ], [ %20, %18 ]
  %.01323 = phi ptr [ %0, %.lr.ph ], [ %19, %18 ]
  %14 = sext i8 %13 to i64
  %15 = getelementptr inbounds i16, ptr %7, i64 %14
  %16 = load i16, ptr %15, align 2, !tbaa !33
  %17 = and i16 %16, 8
  %.not20 = icmp eq i16 %17, 0
  br i1 %.not20, label %18, label %.critedge

18:                                               ; preds = %12
  %19 = getelementptr inbounds nuw i8, ptr %.01323, i64 1
  %20 = load i8, ptr %19, align 1, !tbaa !11
  %.not19 = icmp eq i8 %20, 0
  br i1 %.not19, label %.critedge, label %12, !llvm.loop !35

.critedge:                                        ; preds = %12, %18, %.preheader
  %.013.lcssa = phi ptr [ %0, %.preheader ], [ %19, %18 ], [ %.01323, %12 ]
  %21 = tail call ptr @strcpy(ptr noundef nonnull dereferenceable(1) @XML_PREFIX, ptr noundef nonnull dereferenceable(1) %.013.lcssa) #23
  %22 = tail call i64 @strlen(ptr noundef nonnull dereferenceable(1) @XML_PREFIX) #25
  %23 = getelementptr inbounds nuw i8, ptr @XML_PREFIX, i64 %22
  %.026 = getelementptr inbounds i8, ptr %23, i64 -1
  %24 = load i8, ptr %.026, align 1, !tbaa !11
  %25 = icmp ne i8 %24, 0
  %26 = icmp ugt ptr %.026, @XML_PREFIX
  %or.cond27 = and i1 %25, %26
  br i1 %or.cond27, label %.lr.ph29, label %.critedge3

.lr.ph29:                                         ; preds = %.critedge
  %27 = tail call ptr @__ctype_b_loc() #27
  br label %28

28:                                               ; preds = %.lr.ph29, %35
  %29 = phi i8 [ %24, %.lr.ph29 ], [ %36, %35 ]
  %.028 = phi ptr [ %.026, %.lr.ph29 ], [ %.0, %35 ]
  %30 = load ptr, ptr %27, align 8, !tbaa !31
  %31 = sext i8 %29 to i64
  %32 = getelementptr inbounds i16, ptr %30, i64 %31
  %33 = load i16, ptr %32, align 2, !tbaa !33
  %34 = and i16 %33, 8
  %.not21 = icmp eq i16 %34, 0
  br i1 %.not21, label %35, label %.critedge3

35:                                               ; preds = %28
  store i8 0, ptr %.028, align 1, !tbaa !11
  %.0 = getelementptr inbounds i8, ptr %.028, i64 -1
  %36 = load i8, ptr %.0, align 1, !tbaa !11
  %37 = icmp ne i8 %36, 0
  %38 = icmp ugt ptr %.0, @XML_PREFIX
  %or.cond = and i1 %37, %38
  br i1 %or.cond, label %28, label %.critedge3, !llvm.loop !36

.critedge3:                                       ; preds = %28, %35, %.critedge
  %39 = tail call i32 (ptr, ptr, ...) @fprintf(ptr noundef nonnull %4, ptr noundef nonnull @.str.51, ptr noundef nonnull @XML_PREFIX) #23
  br label %40

40:                                               ; preds = %1, %.critedge3, %8
  %.014 = phi i32 [ 0, %.critedge3 ], [ 1, %8 ], [ 0, %1 ]
  ret i32 %.014
}